; Function Attrs: nounwind uwtable
define internal fastcc range(i32 -12, 1) i32 @nxthread_setup_scheduler(ptr noundef %0, i32 noundef %1, ptr noundef %2, ptr noundef %3, i8 noundef zeroext %4) unnamed_addr #0 {
  %6 = alloca i64, align 8
  %7 = load ptr, ptr @g_readytorun, align 8
  call void @llvm.lifetime.start.p0(i64 8, ptr nonnull %6)
  call void asm sideeffect "\09pushfq\0A\09popq $0\0A", "=*rm,~{memory},~{dirflag},~{fpsr},~{flags}"(ptr nonnull elementtype(i64) %6) #9, !srcloc !6
  %8 = load i64, ptr %6, align 8
  call void @llvm.lifetime.end.p0(i64 8, ptr nonnull %6)
  call void asm sideeffect "cli", "~{memory},~{dirflag},~{fpsr},~{flags}"() #9, !srcloc !7
  br label %9

9:                                                ; preds = %._crit_edge34.i, %5
  %10 = load volatile i32, ptr @g_lastpid, align 4
  %11 = load volatile i32, ptr @g_npidhash, align 4
  %12 = icmp sgt i32 %11, 0
  br i1 %12, label %.lr.ph.i, label %._crit_edge.i

.lr.ph.i:                                         ; preds = %9
  %13 = load ptr, ptr @g_pidhash, align 8
  br label %18

14:                                               ; preds = %18
  %15 = add nuw nsw i32 %.02230.i, 1
  %16 = load volatile i32, ptr @g_npidhash, align 4
  %17 = icmp slt i32 %15, %16
  br i1 %17, label %18, label %._crit_edge.i, !llvm.loop !8

18:                                               ; preds = %14, %.lr.ph.i
  %.02230.i = phi i32 [ 0, %.lr.ph.i ], [ %15, %14 ]
  %.023.in29.i = phi i32 [ %10, %.lr.ph.i ], [ %spec.store.select.i, %14 ]
  %19 = call i32 @llvm.smax.i32(i32 %.023.in29.i, i32 0)
  %spec.store.select.i = add nuw nsw i32 %19, 1
  %20 = load volatile i32, ptr @g_npidhash, align 4
  %21 = add i32 %20, 2147483647
  %22 = and i32 %21, %spec.store.select.i
  %23 = zext nneg i32 %22 to i64
  %24 = getelementptr inbounds nuw ptr, ptr %13, i64 %23
  %25 = load ptr, ptr %24, align 8
  %.not.i = icmp eq ptr %25, null
  br i1 %.not.i, label %26, label %14

26:                                               ; preds = %18
  %27 = getelementptr inbounds nuw ptr, ptr %13, i64 %23
  store ptr %0, ptr %27, align 8
  %28 = getelementptr inbounds nuw i8, ptr %0, i64 24
  store i32 %spec.store.select.i, ptr %28, align 8
  store volatile i32 %spec.store.select.i, ptr @g_lastpid, align 4
  %29 = and i64 %8, 512
  %.not.i.i = icmp eq i64 %29, 0
  br i1 %.not.i.i, label %58, label %30

30:                                               ; preds = %26
  call void asm sideeffect "sti", "~{memory},~{dirflag},~{fpsr},~{flags}"() #9, !srcloc !10
  br label %58

._crit_edge.i:                                    ; preds = %14, %9
  %31 = load volatile i32, ptr @g_npidhash, align 4
  %32 = shl nsw i32 %31, 1
  %33 = sext i32 %32 to i64
  %34 = shl nsw i64 %33, 3
  %35 = call noalias ptr @zalloc(i64 noundef %34) #10
  %36 = icmp eq ptr %35, null
  br i1 %36, label %37, label %40

37:                                               ; preds = %._crit_edge.i
  %38 = and i64 %8, 512
  %.not.i25.i = icmp eq i64 %38, 0
  br i1 %.not.i25.i, label %nxtask_assign_pid.exit, label %39

39:                                               ; preds = %37
  call void asm sideeffect "sti", "~{memory},~{dirflag},~{fpsr},~{flags}"() #9, !srcloc !10
  br label %nxtask_assign_pid.exit

40:                                               ; preds = %._crit_edge.i
  %41 = load volatile i32, ptr @g_npidhash, align 4
  %42 = shl nsw i32 %41, 1
  store volatile i32 %42, ptr @g_npidhash, align 4
  %43 = load volatile i32, ptr @g_npidhash, align 4
  %44 = icmp sgt i32 %43, 1
  %.pre.i = load ptr, ptr @g_pidhash, align 8
  br i1 %44, label %.lr.ph33.i, label %._crit_edge34.i

.lr.ph33.i:                                       ; preds = %40, %.lr.ph33.i
  %indvars.iv.i = phi i64 [ %indvars.iv.next.i, %.lr.ph33.i ], [ 0, %40 ]
  %45 = getelementptr inbounds nuw ptr, ptr %.pre.i, i64 %indvars.iv.i
  %46 = load ptr, ptr %45, align 8
  %47 = getelementptr inbounds nuw i8, ptr %46, i64 24
  %48 = load i32, ptr %47, align 8
  %49 = load volatile i32, ptr @g_npidhash, align 4
  %50 = add nsw i32 %49, -1
  %51 = and i32 %50, %48
  %52 = sext i32 %51 to i64
  %53 = getelementptr inbounds ptr, ptr %35, i64 %52
  store ptr %46, ptr %53, align 8
  %indvars.iv.next.i = add nuw nsw i64 %indvars.iv.i, 1
  %54 = load volatile i32, ptr @g_npidhash, align 4
  %55 = sdiv i32 %54, 2
  %56 = sext i32 %55 to i64
  %57 = icmp slt i64 %indvars.iv.next.i, %56
  br i1 %57, label %.lr.ph33.i, label %._crit_edge34.i, !llvm.loop !11

._crit_edge34.i:                                  ; preds = %.lr.ph33.i, %40
  store ptr %35, ptr @g_pidhash, align 8
  call void @free(ptr noundef %.pre.i)
  br label %9

58:                                               ; preds = %26, %30
  %59 = trunc i32 %1 to i8
  %60 = getelementptr inbounds nuw i8, ptr %0, i64 28
  store i8 %59, ptr %60, align 4
  %61 = getelementptr inbounds nuw i8, ptr %0, i64 29
  store i8 %59, ptr %61, align 1
  %62 = getelementptr inbounds nuw i8, ptr %0, i64 50
  store i8 %59, ptr %62, align 2
  %63 = getelementptr inbounds nuw i8, ptr %0, i64 32
  store ptr %2, ptr %63, align 16
  %64 = getelementptr inbounds nuw i8, ptr %0, i64 40
  store ptr %3, ptr %64, align 8
  %65 = and i8 %4, 3
  %66 = getelementptr inbounds nuw i8, ptr %0, i64 64
  %67 = load i16, ptr %66, align 16
  %68 = and i16 %67, -28
  %69 = zext nneg i8 %65 to i16
  %70 = or disjoint i16 %68, %69
  store i16 %70, ptr %66, align 16
  %.not.i32 = icmp eq i8 %65, 1
  br i1 %.not.i32, label %nxtask_save_parent.exit, label %71

71:                                               ; preds = %58
  %72 = load ptr, ptr @g_readytorun, align 8
  %73 = getelementptr inbounds nuw i8, ptr %72, i64 16
  %74 = load ptr, ptr %73, align 16
  %75 = getelementptr inbounds nuw i8, ptr %74, i64 8
  %76 = load i32, ptr %75, align 8
  %77 = getelementptr inbounds nuw i8, ptr %0, i64 16
  %78 = load ptr, ptr %77, align 16
  %79 = getelementptr inbounds nuw i8, ptr %78, i64 12
  store i32 %76, ptr %79, align 4
  %80 = load ptr, ptr %73, align 16
  %81 = getelementptr inbounds nuw i8, ptr %80, i64 16
  %82 = load i8, ptr %81, align 8
  %83 = and i8 %82, 1
  %84 = icmp eq i8 %83, 0
  br i1 %84, label %85, label %nxtask_save_parent.exit

85:                                               ; preds = %71
  %86 = load i32, ptr %28, align 8
  %87 = call ptr @group_find_child(ptr noundef nonnull %80, i32 noundef %86) #9
  %88 = icmp eq ptr %87, null
  br i1 %88, label %89, label %.thread.i

89:                                               ; preds = %85
  %90 = call ptr @group_alloc_child() #9
  %.not15.i = icmp eq ptr %90, null
  br i1 %.not15.i, label %nxtask_save_parent.exit, label %.thread.i

.thread.i:                                        ; preds = %89, %85
  %.018.i = phi ptr [ %90, %89 ], [ %87, %85 ]
  %91 = getelementptr inbounds nuw i8, ptr %.018.i, i64 8
  store i8 %65, ptr %91, align 8
  %92 = load i32, ptr %28, align 8
  %93 = getelementptr inbounds nuw i8, ptr %.018.i, i64 12
  store i32 %92, ptr %93, align 4
  %94 = getelementptr inbounds nuw i8, ptr %.018.i, i64 16
  store i32 0, ptr %94, align 8
  %95 = load ptr, ptr %73, align 16
  call void @group_add_child(ptr noundef %95, ptr noundef nonnull %.018.i) #9
  br label %nxtask_save_parent.exit

nxtask_save_parent.exit:                          ; preds = %58, %71, %89, %.thread.i
  %96 = getelementptr inbounds nuw i8, ptr %0, i64 136
  %97 = getelementptr inbounds nuw i8, ptr %7, i64 136
  %98 = load i64, ptr %97, align 8
  store i64 %98, ptr %96, align 8
  %99 = getelementptr inbounds nuw i8, ptr %0, i64 48
  store i8 0, ptr %99, align 16
  call void @up_initial_state(ptr noundef nonnull %0) #9
  %100 = call i32 @sched_lock() #9
  %101 = getelementptr inbounds nuw i8, ptr %0, i64 8
  store ptr null, ptr %101, align 8
  %102 = load ptr, ptr @g_inactivetasks, align 8
  store ptr %102, ptr %0, align 8
  %.not = icmp eq ptr %102, null
  br i1 %.not, label %103, label %104

103:                                              ; preds = %nxtask_save_parent.exit
  store ptr %0, ptr getelementptr inbounds nuw (i8, ptr @g_inactivetasks, i64 8), align 8
  br label %106

104:                                              ; preds = %nxtask_save_parent.exit
  %105 = getelementptr inbounds nuw i8, ptr %102, i64 8
  store ptr %0, ptr %105, align 8
  br label %106

106:                                              ; preds = %103, %104
  store ptr %0, ptr @g_inactivetasks, align 8
  store i8 4, ptr %99, align 16
  %107 = call i32 @sched_unlock() #9
  br label %nxtask_assign_pid.exit

nxtask_assign_pid.exit:                           ; preds = %39, %37, %106
  %.0.i34 = phi i32 [ 0, %106 ], [ -12, %37 ], [ -12, %39 ]
  ret i32 %.0.i34
}